target datalayout = "e-m:e-p270:32:32-p271:32:32-p272:64:64-i64:64-i128:128-f80:128-n8:16:32:64-S128"
target triple = "x86_64-pc-linux-gnu"

%struct._object = type { %union.anon, ptr }
%union.anon = type { i64 }
%struct.PyVarObject = type { %struct._object, i64 }
%struct.arraydescr = type { i8, i32, ptr, ptr, ptr, ptr, i32, i32 }
%struct.anon = type { i32, i32 }
%struct.arrayobject = type { %struct.PyVarObject, ptr, i64, ptr, ptr, i64 }

@_Py_NoneStruct = external global %struct._object, align 8
@.str.55 = private unnamed_addr constant [33 x i8] c"../cpython/Modules/arraymodule.c\00", align 1
@.str.89 = private unnamed_addr constant [7 x i8] c"insert\00", align 1

; Function Attrs: inlinehint nounwind uwtable
define internal i64 @Py_SIZE(ptr noundef %0) #3 {
  %2 = alloca ptr, align 8
  store ptr %0, ptr %2, align 8, !tbaa !3
  %3 = load ptr, ptr %2, align 8, !tbaa !3
  %4 = getelementptr inbounds nuw %struct.PyVarObject, ptr %3, i32 0, i32 1
  %5 = load i64, ptr %4, align 8, !tbaa !62
  ret i64 %5
}

; Function Attrs: nounwind uwtable
define internal i32 @ins1(ptr noundef %0, i64 noundef %1, ptr noundef %2) #0 {
  %4 = alloca i32, align 4
  %5 = alloca ptr, align 8
  %6 = alloca i64, align 8
  %7 = alloca ptr, align 8
  %8 = alloca ptr, align 8
  %9 = alloca i64, align 8
  %10 = alloca i32, align 4
  store ptr %0, ptr %5, align 8, !tbaa !68
  store i64 %1, ptr %6, align 8, !tbaa !21
  store ptr %2, ptr %7, align 8, !tbaa !3
  call void @llvm.lifetime.start.p0(i64 8, ptr %8) #8
  call void @llvm.lifetime.start.p0(i64 8, ptr %9) #8
  %11 = load ptr, ptr %5, align 8, !tbaa !68
  %12 = call i64 @Py_SIZE(ptr noundef %11)
  store i64 %12, ptr %9, align 8, !tbaa !21
  %13 = load ptr, ptr %7, align 8, !tbaa !3
  %14 = icmp eq ptr %13, null
  br i1 %14, label %15, label %16

15:                                               ; preds = %3
  call void @_PyErr_BadInternalCall(ptr noundef @.str.55, i32 noundef 688)
  store i32 -1, ptr %4, align 4
  store i32 1, ptr %10, align 4
  br label %100

16:                                               ; preds = %3
  %17 = load ptr, ptr %5, align 8, !tbaa !68
  %18 = getelementptr inbounds nuw %struct.arrayobject, ptr %17, i32 0, i32 3
  %19 = load ptr, ptr %18, align 8, !tbaa !99
  %20 = getelementptr inbounds nuw %struct.arraydescr, ptr %19, i32 0, i32 3
  %21 = load ptr, ptr %20, align 8, !tbaa !109
  %22 = load ptr, ptr %5, align 8, !tbaa !68
  %23 = load ptr, ptr %7, align 8, !tbaa !3
  %24 = call i32 %21(ptr noundef %22, i64 noundef -1, ptr noundef %23)
  %25 = icmp slt i32 %24, 0
  br i1 %25, label %26, label %27

26:                                               ; preds = %16
  store i32 -1, ptr %4, align 4
  store i32 1, ptr %10, align 4
  br label %100

27:                                               ; preds = %16
  %28 = load ptr, ptr %5, align 8, !tbaa !68
  %29 = load i64, ptr %9, align 8, !tbaa !21
  %30 = add i64 %29, 1
  %31 = call i32 @array_resize(ptr noundef %28, i64 noundef %30)
  %32 = icmp eq i32 %31, -1
  br i1 %32, label %33, label %34

33:                                               ; preds = %27
  store i32 -1, ptr %4, align 4
  store i32 1, ptr %10, align 4
  br label %100

34:                                               ; preds = %27
  %35 = load ptr, ptr %5, align 8, !tbaa !68
  %36 = getelementptr inbounds nuw %struct.arrayobject, ptr %35, i32 0, i32 1
  %37 = load ptr, ptr %36, align 8, !tbaa !70
  store ptr %37, ptr %8, align 8, !tbaa !47
  %38 = load i64, ptr %6, align 8, !tbaa !21
  %39 = icmp slt i64 %38, 0
  br i1 %39, label %40, label %48

40:                                               ; preds = %34
  %41 = load i64, ptr %9, align 8, !tbaa !21
  %42 = load i64, ptr %6, align 8, !tbaa !21
  %43 = add i64 %42, %41
  store i64 %43, ptr %6, align 8, !tbaa !21
  %44 = load i64, ptr %6, align 8, !tbaa !21
  %45 = icmp slt i64 %44, 0
  br i1 %45, label %46, label %47

46:                                               ; preds = %40
  store i64 0, ptr %6, align 8, !tbaa !21
  br label %47

47:                                               ; preds = %46, %40
  br label %48

48:                                               ; preds = %47, %34
  %49 = load i64, ptr %6, align 8, !tbaa !21
  %50 = load i64, ptr %9, align 8, !tbaa !21
  %51 = icmp sgt i64 %49, %50
  br i1 %51, label %52, label %54

52:                                               ; preds = %48
  %53 = load i64, ptr %9, align 8, !tbaa !21
  store i64 %53, ptr %6, align 8, !tbaa !21
  br label %54

54:                                               ; preds = %52, %48
  %55 = load i64, ptr %6, align 8, !tbaa !21
  %56 = load i64, ptr %9, align 8, !tbaa !21
  %57 = icmp ne i64 %55, %56
  br i1 %57, label %58, label %90

58:                                               ; preds = %54
  %59 = load ptr, ptr %8, align 8, !tbaa !47
  %60 = load i64, ptr %6, align 8, !tbaa !21
  %61 = add i64 %60, 1
  %62 = load ptr, ptr %5, align 8, !tbaa !68
  %63 = getelementptr inbounds nuw %struct.arrayobject, ptr %62, i32 0, i32 3
  %64 = load ptr, ptr %63, align 8, !tbaa !99
  %65 = getelementptr inbounds nuw %struct.arraydescr, ptr %64, i32 0, i32 1
  %66 = load i32, ptr %65, align 4, !tbaa !52
  %67 = sext i32 %66 to i64
  %68 = mul i64 %61, %67
  %69 = getelementptr i8, ptr %59, i64 %68
  %70 = load ptr, ptr %8, align 8, !tbaa !47
  %71 = load i64, ptr %6, align 8, !tbaa !21
  %72 = load ptr, ptr %5, align 8, !tbaa !68
  %73 = getelementptr inbounds nuw %struct.arrayobject, ptr %72, i32 0, i32 3
  %74 = load ptr, ptr %73, align 8, !tbaa !99
  %75 = getelementptr inbounds nuw %struct.arraydescr, ptr %74, i32 0, i32 1
  %76 = load i32, ptr %75, align 4, !tbaa !52
  %77 = sext i32 %76 to i64
  %78 = mul i64 %71, %77
  %79 = getelementptr i8, ptr %70, i64 %78
  %80 = load i64, ptr %9, align 8, !tbaa !21
  %81 = load i64, ptr %6, align 8, !tbaa !21
  %82 = sub i64 %80, %81
  %83 = load ptr, ptr %5, align 8, !tbaa !68
  %84 = getelementptr inbounds nuw %struct.arrayobject, ptr %83, i32 0, i32 3
  %85 = load ptr, ptr %84, align 8, !tbaa !99
  %86 = getelementptr inbounds nuw %struct.arraydescr, ptr %85, i32 0, i32 1
  %87 = load i32, ptr %86, align 4, !tbaa !52
  %88 = sext i32 %87 to i64
  %89 = mul i64 %82, %88
  call void @llvm.memmove.p0.p0.i64(ptr align 1 %69, ptr align 1 %79, i64 %89, i1 false)
  br label %90

90:                                               ; preds = %58, %54
  %91 = load ptr, ptr %5, align 8, !tbaa !68
  %92 = getelementptr inbounds nuw %struct.arrayobject, ptr %91, i32 0, i32 3
  %93 = load ptr, ptr %92, align 8, !tbaa !99
  %94 = getelementptr inbounds nuw %struct.arraydescr, ptr %93, i32 0, i32 3
  %95 = load ptr, ptr %94, align 8, !tbaa !109
  %96 = load ptr, ptr %5, align 8, !tbaa !68
  %97 = load i64, ptr %6, align 8, !tbaa !21
  %98 = load ptr, ptr %7, align 8, !tbaa !3
  %99 = call i32 %95(ptr noundef %96, i64 noundef %97, ptr noundef %98)
  store i32 %99, ptr %4, align 4
  store i32 1, ptr %10, align 4
  br label %100

100:                                              ; preds = %90, %33, %26, %15
  call void @llvm.lifetime.end.p0(i64 8, ptr %9) #8
  call void @llvm.lifetime.end.p0(i64 8, ptr %8) #8
  %101 = load i32, ptr %4, align 4
  ret i32 %101
}

; Function Attrs: nounwind uwtable
define internal ptr @ins(ptr noundef %0, i64 noundef %1, ptr noundef %2) #0 {
  %4 = alloca ptr, align 8
  %5 = alloca ptr, align 8
  %6 = alloca i64, align 8
  %7 = alloca ptr, align 8
  store ptr %0, ptr %5, align 8, !tbaa !68
  store i64 %1, ptr %6, align 8, !tbaa !21
  store ptr %2, ptr %7, align 8, !tbaa !3
  %8 = load ptr, ptr %5, align 8, !tbaa !68
  %9 = load i64, ptr %6, align 8, !tbaa !21
  %10 = load ptr, ptr %7, align 8, !tbaa !3
  %11 = call i32 @ins1(ptr noundef %8, i64 noundef %9, ptr noundef %10)
  %12 = icmp ne i32 %11, 0
  br i1 %12, label %13, label %14

13:                                               ; preds = %3
  store ptr null, ptr %4, align 8
  br label %15

14:                                               ; preds = %3
  store ptr @_Py_NoneStruct, ptr %4, align 8
  br label %15

15:                                               ; preds = %14, %13
  %16 = load ptr, ptr %4, align 8
  ret ptr %16
}

; Function Attrs: alwaysinline nounwind uwtable
define internal i32 @_Py_IsImmortal(ptr noundef %0) #4 {
  %2 = alloca ptr, align 8
  store ptr %0, ptr %2, align 8, !tbaa !3
  %3 = load ptr, ptr %2, align 8, !tbaa !3
  %4 = getelementptr inbounds nuw %struct._object, ptr %3, i32 0, i32 0
  %5 = getelementptr inbounds nuw %struct.anon, ptr %4, i32 0, i32 0
  %6 = load i32, ptr %5, align 8, !tbaa !36
  %7 = icmp slt i32 %6, 0
  %8 = zext i1 %7 to i32
  ret i32 %8
}

; Function Attrs: nounwind uwtable
define internal ptr @array_array_insert_impl(ptr noundef %0, i64 noundef %1, ptr noundef %2) #0 {
  %4 = alloca ptr, align 8
  %5 = alloca i64, align 8
  %6 = alloca ptr, align 8
  store ptr %0, ptr %4, align 8, !tbaa !68
  store i64 %1, ptr %5, align 8, !tbaa !21
  store ptr %2, ptr %6, align 8, !tbaa !3
  %7 = load ptr, ptr %4, align 8, !tbaa !68
  %8 = load i64, ptr %5, align 8, !tbaa !21
  %9 = load ptr, ptr %6, align 8, !tbaa !3
  %10 = call ptr @ins(ptr noundef %7, i64 noundef %8, ptr noundef %9)
  ret ptr %10
}

; Function Attrs: alwaysinline nounwind uwtable
define internal void @Py_DECREF(ptr noundef %0) #4 {
  %2 = alloca ptr, align 8
  store ptr %0, ptr %2, align 8, !tbaa !3
  %3 = load ptr, ptr %2, align 8, !tbaa !3
  %4 = call i32 @_Py_IsImmortal(ptr noundef %3)
  %5 = icmp ne i32 %4, 0
  br i1 %5, label %6, label %7

6:                                                ; preds = %1
  br label %16

7:                                                ; preds = %1
  %8 = load ptr, ptr %2, align 8, !tbaa !3
  %9 = getelementptr inbounds nuw %struct._object, ptr %8, i32 0, i32 0
  %10 = getelementptr inbounds nuw %struct.anon, ptr %9, i32 0, i32 0
  %11 = load i32, ptr %10, align 8, !tbaa !36
  %12 = add i32 %11, -1
  store i32 %12, ptr %10, align 8, !tbaa !36
  %13 = icmp eq i32 %12, 0
  br i1 %13, label %14, label %16

14:                                               ; preds = %7
  %15 = load ptr, ptr %2, align 8, !tbaa !3
  call void @_Py_Dealloc(ptr noundef %15)
  br label %16

16:                                               ; preds = %6, %14, %7
  ret void
}

; Function Attrs: nounwind uwtable
define internal ptr @array_array_insert(ptr noundef %0, ptr noundef %1, i64 noundef %2) #0 {
  %4 = alloca ptr, align 8
  %5 = alloca ptr, align 8
  %6 = alloca ptr, align 8
  %7 = alloca i64, align 8
  %8 = alloca ptr, align 8
  %9 = alloca i64, align 8
  %10 = alloca ptr, align 8
  %11 = alloca i64, align 8
  %12 = alloca ptr, align 8
  %13 = alloca i32, align 4
  store ptr %0, ptr %5, align 8, !tbaa !3
  store ptr %1, ptr %6, align 8, !tbaa !19
  store i64 %2, ptr %7, align 8, !tbaa !21
  call void @llvm.lifetime.start.p0(i64 8, ptr %8) #8
  store ptr null, ptr %8, align 8, !tbaa !3
  call void @llvm.lifetime.start.p0(i64 8, ptr %9) #8
  call void @llvm.lifetime.start.p0(i64 8, ptr %10) #8
  %14 = load i64, ptr %7, align 8, !tbaa !21
  %15 = icmp sle i64 2, %14
  br i1 %15, label %16, label %19

16:                                               ; preds = %3
  %17 = load i64, ptr %7, align 8, !tbaa !21
  %18 = icmp sle i64 %17, 2
  br i1 %18, label %24, label %19

19:                                               ; preds = %16, %3
  %20 = load i64, ptr %7, align 8, !tbaa !21
  %21 = call i32 @_PyArg_CheckPositional(ptr noundef @.str.89, i64 noundef %20, i64 noundef 2, i64 noundef 2)
  %22 = icmp ne i32 %21, 0
  br i1 %22, label %24, label %23

23:                                               ; preds = %19
  br label %54

24:                                               ; preds = %19, %16
  call void @llvm.lifetime.start.p0(i64 8, ptr %11) #8
  store i64 -1, ptr %11, align 8, !tbaa !21
  call void @llvm.lifetime.start.p0(i64 8, ptr %12) #8
  %25 = load ptr, ptr %6, align 8, !tbaa !19
  %26 = getelementptr ptr, ptr %25, i64 0
  %27 = load ptr, ptr %26, align 8, !tbaa !3
  %28 = call ptr @_PyNumber_Index(ptr noundef %27)
  store ptr %28, ptr %12, align 8, !tbaa !3
  %29 = load ptr, ptr %12, align 8, !tbaa !3
  %30 = icmp ne ptr %29, null
  br i1 %30, label %31, label %35

31:                                               ; preds = %24
  %32 = load ptr, ptr %12, align 8, !tbaa !3
  %33 = call i64 @PyLong_AsSsize_t(ptr noundef %32)
  store i64 %33, ptr %11, align 8, !tbaa !21
  %34 = load ptr, ptr %12, align 8, !tbaa !3
  call void @Py_DECREF(ptr noundef %34)
  br label %35

35:                                               ; preds = %31, %24
  %36 = load i64, ptr %11, align 8, !tbaa !21
  %37 = icmp eq i64 %36, -1
  br i1 %37, label %38, label %42

38:                                               ; preds = %35
  %39 = call ptr @PyErr_Occurred()
  %40 = icmp ne ptr %39, null
  br i1 %40, label %41, label %42

41:                                               ; preds = %38
  store i32 2, ptr %13, align 4
  br label %44

42:                                               ; preds = %38, %35
  %43 = load i64, ptr %11, align 8, !tbaa !21
  store i64 %43, ptr %9, align 8, !tbaa !21
  store i32 0, ptr %13, align 4
  br label %44

44:                                               ; preds = %41, %42
  call void @llvm.lifetime.end.p0(i64 8, ptr %12) #8
  call void @llvm.lifetime.end.p0(i64 8, ptr %11) #8
  %45 = load i32, ptr %13, align 4
  switch i32 %45, label %56 [
    i32 0, label %46
    i32 2, label %54
  ]

46:                                               ; preds = %44
  %47 = load ptr, ptr %6, align 8, !tbaa !19
  %48 = getelementptr ptr, ptr %47, i64 1
  %49 = load ptr, ptr %48, align 8, !tbaa !3
  store ptr %49, ptr %10, align 8, !tbaa !3
  %50 = load ptr, ptr %5, align 8, !tbaa !3
  %51 = load i64, ptr %9, align 8, !tbaa !21
  %52 = load ptr, ptr %10, align 8, !tbaa !3
  %53 = call ptr @array_array_insert_impl(ptr noundef %50, i64 noundef %51, ptr noundef %52)
  store ptr %53, ptr %8, align 8, !tbaa !3
  br label %54

54:                                               ; preds = %46, %44, %23
  %55 = load ptr, ptr %8, align 8, !tbaa !3
  store ptr %55, ptr %4, align 8
  store i32 1, ptr %13, align 4
  br label %56

56:                                               ; preds = %54, %44
  call void @llvm.lifetime.end.p0(i64 8, ptr %10) #8
  call void @llvm.lifetime.end.p0(i64 8, ptr %9) #8
  call void @llvm.lifetime.end.p0(i64 8, ptr %8) #8
  %57 = load ptr, ptr %4, align 8
  ret ptr %57
}