; Function Attrs: nounwind uwtable
define internal noundef ptr @array_array_insert(ptr noundef %0, ptr noundef readonly captures(none) %1, i64 noundef %2) #0 {
  %or.cond = icmp eq i64 %2, 2
  br i1 %or.cond, label %6, label %4

4:                                                ; preds = %3
  %5 = tail call i32 @_PyArg_CheckPositional(ptr noundef nonnull @.str.89, i64 noundef %2, i64 noundef 2, i64 noundef 2) #11
  %.not = icmp eq i32 %5, 0
  br i1 %.not, label %array_array_insert_impl.exit, label %6

6:                                                ; preds = %3, %4
  %7 = load ptr, ptr %1, align 8, !tbaa !18
  %8 = tail call ptr @_PyNumber_Index(ptr noundef %7) #11
  %.not21 = icmp eq ptr %8, null
  br i1 %.not21, label %Py_DECREF.exit.thread, label %9

9:                                                ; preds = %6
  %10 = tail call i64 @PyLong_AsSsize_t(ptr noundef nonnull %8) #11
  %11 = load i32, ptr %8, align 8, !tbaa !17
  %.not.i = icmp sgt i32 %11, -1
  br i1 %.not.i, label %12, label %Py_DECREF.exit

12:                                               ; preds = %9
  %13 = add nsw i32 %11, -1
  store i32 %13, ptr %8, align 8, !tbaa !17
  %14 = icmp eq i32 %13, 0
  br i1 %14, label %15, label %Py_DECREF.exit

15:                                               ; preds = %12
  tail call void @_Py_Dealloc(ptr noundef nonnull %8) #11
  br label %Py_DECREF.exit

Py_DECREF.exit:                                   ; preds = %15, %12, %9
  %16 = icmp eq i64 %10, -1
  br i1 %16, label %Py_DECREF.exit.thread, label %18

Py_DECREF.exit.thread:                            ; preds = %6, %Py_DECREF.exit
  %17 = tail call ptr @PyErr_Occurred() #11
  %.not22 = icmp eq ptr %17, null
  br i1 %.not22, label %18, label %array_array_insert_impl.exit

18:                                               ; preds = %Py_DECREF.exit.thread, %Py_DECREF.exit
  %.01725.ph = phi i64 [ %10, %Py_DECREF.exit ], [ -1, %Py_DECREF.exit.thread ]
  %19 = getelementptr i8, ptr %1, i64 8
  %20 = load ptr, ptr %19, align 8, !tbaa !18
  %21 = getelementptr i8, ptr %0, i64 16
  %.val.i.i.i = load i64, ptr %21, align 8, !tbaa !40
  %22 = icmp eq ptr %20, null
  br i1 %22, label %23, label %24

23:                                               ; preds = %18
  tail call void @_PyErr_BadInternalCall(ptr noundef nonnull @.str.55, i32 noundef 688) #11
  br label %array_array_insert_impl.exit

24:                                               ; preds = %18
  %25 = getelementptr inbounds nuw i8, ptr %0, i64 40
  %26 = load ptr, ptr %25, align 8, !tbaa !76
  %27 = getelementptr inbounds nuw i8, ptr %26, i64 16
  %28 = load ptr, ptr %27, align 8, !tbaa !77
  %29 = tail call i32 %28(ptr noundef nonnull %0, i64 noundef -1, ptr noundef nonnull %20) #11
  %30 = icmp slt i32 %29, 0
  br i1 %30, label %array_array_insert_impl.exit, label %31

31:                                               ; preds = %24
  %32 = add i64 %.val.i.i.i, 1
  %33 = tail call fastcc i32 @array_resize(ptr noundef nonnull %0, i64 noundef %32)
  %34 = icmp eq i32 %33, -1
  br i1 %34, label %array_array_insert_impl.exit, label %35

35:                                               ; preds = %31
  %36 = icmp slt i64 %.01725.ph, 0
  %37 = add i64 %.val.i.i.i, %.01725.ph
  %spec.store.select.i.i.i = tail call i64 @llvm.smax.i64(i64 %37, i64 0)
  %.030.i.i.i = select i1 %36, i64 %spec.store.select.i.i.i, i64 %.01725.ph
  %.1.i.i.i = tail call i64 @llvm.smin.i64(i64 %.030.i.i.i, i64 %.val.i.i.i)
  %.not.not.i.i.i = icmp sgt i64 %.val.i.i.i, %.030.i.i.i
  br i1 %.not.not.i.i.i, label %38, label %ins1.exit.i.i

38:                                               ; preds = %35
  %39 = getelementptr inbounds nuw i8, ptr %0, i64 24
  %40 = load ptr, ptr %39, align 8, !tbaa !53
  %41 = add i64 %.1.i.i.i, 1
  %42 = load ptr, ptr %25, align 8, !tbaa !76
  %43 = getelementptr inbounds nuw i8, ptr %42, i64 4
  %44 = load i32, ptr %43, align 4, !tbaa !49
  %45 = sext i32 %44 to i64
  %46 = mul i64 %41, %45
  %47 = getelementptr i8, ptr %40, i64 %46
  %48 = mul i64 %.1.i.i.i, %45
  %49 = getelementptr i8, ptr %40, i64 %48
  %50 = sub i64 %.val.i.i.i, %.1.i.i.i
  %51 = mul i64 %50, %45
  tail call void @llvm.memmove.p0.p0.i64(ptr align 1 %47, ptr align 1 %49, i64 %51, i1 false)
  br label %ins1.exit.i.i

ins1.exit.i.i:                                    ; preds = %38, %35
  %52 = load ptr, ptr %25, align 8, !tbaa !76
  %53 = getelementptr inbounds nuw i8, ptr %52, i64 16
  %54 = load ptr, ptr %53, align 8, !tbaa !77
  %55 = tail call i32 %54(ptr noundef nonnull %0, i64 noundef %.1.i.i.i, ptr noundef nonnull %20) #11
  %.fr.i.i = freeze i32 %55
  %.not.i.i = icmp eq i32 %.fr.i.i, 0
  %spec.select.i.i = select i1 %.not.i.i, ptr @_Py_NoneStruct, ptr null
  br label %array_array_insert_impl.exit

array_array_insert_impl.exit:                     ; preds = %ins1.exit.i.i, %31, %24, %23, %Py_DECREF.exit.thread, %4
  %.018 = phi ptr [ null, %4 ], [ null, %Py_DECREF.exit.thread ], [ null, %23 ], [ null, %24 ], [ null, %31 ], [ %spec.select.i.i, %ins1.exit.i.i ]
  ret ptr %.018
}